; Function Attrs: mustprogress uwtable
define dso_local noundef nonnull align 8 dereferenceable(37) ptr @_ZN5vcpkg13XmlSerializer9text_attrENS_13StringLiteralENS_10StringViewE(ptr noundef nonnull returned align 8 dereferenceable(37) %0, ptr %1, i64 %2, ptr captures(address) %3, i64 %4) local_unnamed_addr #0 align 2 personality ptr @__gxx_personality_v0 {
  %6 = alloca %"struct.vcpkg::StringLiteral", align 8
  store ptr %1, ptr %6, align 8
  %7 = getelementptr inbounds nuw i8, ptr %6, i64 8
  store i64 %2, ptr %7, align 8
  %8 = getelementptr inbounds nuw i8, ptr %0, i64 36
  %9 = load i8, ptr %8, align 4, !tbaa !12, !range !16, !noundef !17
  %10 = trunc nuw i8 %9 to i1
  br i1 %10, label %11, label %18

11:                                               ; preds = %5
  store i8 0, ptr %8, align 4, !tbaa !12
  %12 = getelementptr inbounds nuw i8, ptr %0, i64 32
  %13 = load i32, ptr %12, align 8, !tbaa !18
  %14 = sext i32 %13 to i64
  %15 = getelementptr inbounds nuw i8, ptr %0, i64 8
  %16 = load i64, ptr %15, align 8, !tbaa !4
  %17 = tail call noundef nonnull align 8 dereferenceable(32) ptr @_ZNSt7__cxx1112basic_stringIcSt11char_traitsIcESaIcEE14_M_replace_auxEmmmc(ptr noundef nonnull align 8 dereferenceable(32) %0, i64 noundef %16, i64 noundef 0, i64 noundef %14, i8 noundef signext 32)
  br label %35

18:                                               ; preds = %5
  %19 = getelementptr inbounds nuw i8, ptr %0, i64 8
  %20 = load i64, ptr %19, align 8, !tbaa !4
  %21 = add i64 %20, 1
  %22 = load ptr, ptr %0, align 8, !tbaa !19
  %23 = getelementptr inbounds nuw i8, ptr %0, i64 16
  %24 = icmp eq ptr %22, %23
  br i1 %24, label %25, label %_ZNKSt7__cxx1112basic_stringIcSt11char_traitsIcESaIcEE8capacityEv.exit.i

25:                                               ; preds = %18
  %26 = icmp ult i64 %20, 16
  tail call void @llvm.assume(i1 %26)
  br label %_ZNKSt7__cxx1112basic_stringIcSt11char_traitsIcESaIcEE8capacityEv.exit.i

_ZNKSt7__cxx1112basic_stringIcSt11char_traitsIcESaIcEE8capacityEv.exit.i: ; preds = %25, %18
  %27 = load i64, ptr %23, align 8
  %28 = select i1 %24, i64 15, i64 %27
  %29 = icmp ugt i64 %21, %28
  br i1 %29, label %30, label %_ZNSt7__cxx1112basic_stringIcSt11char_traitsIcESaIcEE9push_backEc.exit

30:                                               ; preds = %_ZNKSt7__cxx1112basic_stringIcSt11char_traitsIcESaIcEE8capacityEv.exit.i
  tail call void @_ZNSt7__cxx1112basic_stringIcSt11char_traitsIcESaIcEE9_M_mutateEmmPKcm(ptr noundef nonnull align 8 dereferenceable(32) %0, i64 noundef %20, i64 noundef 0, ptr noundef null, i64 noundef 1)
  %.pre.i = load ptr, ptr %0, align 8, !tbaa !19
  br label %_ZNSt7__cxx1112basic_stringIcSt11char_traitsIcESaIcEE9push_backEc.exit

_ZNSt7__cxx1112basic_stringIcSt11char_traitsIcESaIcEE9push_backEc.exit: ; preds = %_ZNKSt7__cxx1112basic_stringIcSt11char_traitsIcESaIcEE8capacityEv.exit.i, %30
  %31 = phi ptr [ %.pre.i, %30 ], [ %22, %_ZNKSt7__cxx1112basic_stringIcSt11char_traitsIcESaIcEE8capacityEv.exit.i ]
  %32 = getelementptr inbounds nuw i8, ptr %31, i64 %20
  store i8 32, ptr %32, align 1, !tbaa !20
  store i64 %21, ptr %19, align 8, !tbaa !4
  %33 = load ptr, ptr %0, align 8, !tbaa !19
  %34 = getelementptr inbounds nuw i8, ptr %33, i64 %21
  store i8 0, ptr %34, align 1, !tbaa !20
  br label %35

35:                                               ; preds = %_ZNSt7__cxx1112basic_stringIcSt11char_traitsIcESaIcEE9push_backEc.exit, %11
  call void @_ZNK5vcpkg10StringView9to_stringERNSt7__cxx1112basic_stringIcSt11char_traitsIcESaIcEEE(ptr noundef nonnull align 8 dereferenceable(16) %6, ptr noundef nonnull align 8 dereferenceable(32) %0)
  call void @_ZN5vcpkg7Strings7details15append_internalERNSt7__cxx1112basic_stringIcSt11char_traitsIcESaIcEEEPKc(ptr noundef nonnull align 8 dereferenceable(32) %0, ptr noundef nonnull @.str.1)
  %36 = call noundef nonnull align 8 dereferenceable(37) ptr @_ZN5vcpkg13XmlSerializer4textENS_10StringViewE(ptr noundef nonnull align 8 dereferenceable(37) %0, ptr %3, i64 %4)
  %37 = getelementptr inbounds nuw i8, ptr %0, i64 8
  %38 = load i64, ptr %37, align 8, !tbaa !4
  %39 = add i64 %38, 1
  %40 = load ptr, ptr %0, align 8, !tbaa !19
  %41 = getelementptr inbounds nuw i8, ptr %0, i64 16
  %42 = icmp eq ptr %40, %41
  br i1 %42, label %43, label %_ZNKSt7__cxx1112basic_stringIcSt11char_traitsIcESaIcEE8capacityEv.exit.i3

43:                                               ; preds = %35
  %44 = icmp ult i64 %38, 16
  call void @llvm.assume(i1 %44)
  br label %_ZNKSt7__cxx1112basic_stringIcSt11char_traitsIcESaIcEE8capacityEv.exit.i3

_ZNKSt7__cxx1112basic_stringIcSt11char_traitsIcESaIcEE8capacityEv.exit.i3: ; preds = %43, %35
  %45 = load i64, ptr %41, align 8
  %46 = select i1 %42, i64 15, i64 %45
  %47 = icmp ugt i64 %39, %46
  br i1 %47, label %48, label %_ZNSt7__cxx1112basic_stringIcSt11char_traitsIcESaIcEE9push_backEc.exit5

48:                                               ; preds = %_ZNKSt7__cxx1112basic_stringIcSt11char_traitsIcESaIcEE8capacityEv.exit.i3
  call void @_ZNSt7__cxx1112basic_stringIcSt11char_traitsIcESaIcEE9_M_mutateEmmPKcm(ptr noundef nonnull align 8 dereferenceable(32) %0, i64 noundef %38, i64 noundef 0, ptr noundef null, i64 noundef 1)
  %.pre.i4 = load ptr, ptr %0, align 8, !tbaa !19
  br label %_ZNSt7__cxx1112basic_stringIcSt11char_traitsIcESaIcEE9push_backEc.exit5

_ZNSt7__cxx1112basic_stringIcSt11char_traitsIcESaIcEE9push_backEc.exit5: ; preds = %_ZNKSt7__cxx1112basic_stringIcSt11char_traitsIcESaIcEE8capacityEv.exit.i3, %48
  %49 = phi ptr [ %.pre.i4, %48 ], [ %40, %_ZNKSt7__cxx1112basic_stringIcSt11char_traitsIcESaIcEE8capacityEv.exit.i3 ]
  %50 = getelementptr inbounds nuw i8, ptr %49, i64 %38
  store i8 34, ptr %50, align 1, !tbaa !20
  store i64 %39, ptr %37, align 8, !tbaa !4
  %51 = load ptr, ptr %0, align 8, !tbaa !19
  %52 = getelementptr inbounds nuw i8, ptr %51, i64 %39
  store i8 0, ptr %52, align 1, !tbaa !20
  ret ptr %0
}